target datalayout = "e-m:e-p270:32:32-p271:32:32-p272:64:64-i64:64-i128:128-f80:128-n8:16:32:64-S128"
target triple = "x86_64-pc-linux-gnu"

@proto_register_trmac.ett = internal global [4 x ptr] [ptr @ett_tr_mac, ptr @ett_tr_sv, ptr @ett_tr_ierr_cnt, ptr @ett_tr_nerr_cnt], align 16
@.str.86 = private unnamed_addr constant [32 x i8] c"Token-Ring Media Access Control\00", align 1
@.str.87 = private unnamed_addr constant [7 x i8] c"TR MAC\00", align 1
@.str.88 = private unnamed_addr constant [6 x i8] c"trmac\00", align 1
@proto_trmac = internal global i32 0, align 4

; Function Attrs: null_pointer_is_valid sspstrong uwtable
define hidden void @proto_register_trmac() #0 {
  %1 = alloca ptr, align 8
  call void @llvm.lifetime.start.p0(i64 8, ptr %1) #3
  %2 = call i32 @proto_register_protocol(ptr noundef @.str.86, ptr noundef @.str.87, ptr noundef @.str.88)
  store i32 %2, ptr @proto_trmac, align 4
  %3 = load i32, ptr @proto_trmac, align 4
  call void @proto_register_field_array(i32 noundef %3, ptr noundef @proto_register_trmac.hf, i32 noundef 43)
  call void @proto_register_subtree_array(ptr noundef @proto_register_trmac.ett, i32 noundef 4)
  %4 = load i32, ptr @proto_trmac, align 4
  %5 = call ptr @expert_register_protocol(i32 noundef %4)
  store ptr %5, ptr %1, align 8
  %6 = load ptr, ptr %1, align 8
  call void @expert_register_field_array(ptr noundef %6, ptr noundef @proto_register_trmac.ei, i32 noundef 1)
  %7 = load i32, ptr @proto_trmac, align 4
  %8 = call ptr @register_dissector(ptr noundef @.str.88, ptr noundef @dissect_trmac, i32 noundef %7)
  call void @llvm.lifetime.end.p0(i64 8, ptr %1) #3
  ret void
}